; Function Attrs: mustprogress nounwind uwtable
define internal void @"_ZZN4node8WatchdogC1EPN2v87IsolateEmPbEN3$_08__invokeEP10uv_async_s"(ptr noundef %signal) #3 align 2 {
entry:
  %0 = ptrtoint ptr %signal to i64
  %sub.i.i.i = add i64 %0, -864
  %1 = inttoptr i64 %sub.i.i.i to ptr
  %loop_.i = getelementptr inbounds i8, ptr %1, i64 16
  tail call void @uv_stop(ptr noundef nonnull %loop_.i) #15
  ret void
}